; Function Attrs: mustprogress nounwind uwtable
define internal void @_ZN12_GLOBAL__N_116MachineSchedulerD2Ev(ptr noundef nonnull align 8 dereferenceable(120) %0) unnamed_addr #0 align 2 {
  %2 = getelementptr inbounds nuw i8, ptr %0, i64 64
  tail call void @_ZN4llvm4PassD2Ev(ptr noundef nonnull align 8 dereferenceable(56) %2) #28
  store ptr getelementptr inbounds nuw inrange(-16, 16) (i8, ptr @_ZTVN4llvm19MachineSchedContextE, i64 16), ptr %0, align 8
  %3 = getelementptr inbounds nuw i8, ptr %0, i64 56
  %4 = load ptr, ptr %3, align 8
  %5 = icmp eq ptr %4, null
  br i1 %5, label %_ZN12_GLOBAL__N_120MachineSchedulerBaseD2Ev.exit, label %6

6:                                                ; preds = %1
  tail call void @_ZN4llvm17RegisterClassInfoD2Ev(ptr noundef nonnull align 8 dereferenceable(320) %4) #28
  tail call void @_ZdlPvm(ptr noundef nonnull %4, i64 noundef 320) #30
  br label %_ZN12_GLOBAL__N_120MachineSchedulerBaseD2Ev.exit

_ZN12_GLOBAL__N_120MachineSchedulerBaseD2Ev.exit: ; preds = %1, %6
  ret void
}